target datalayout = "e-m:e-p270:32:32-p271:32:32-p272:64:64-i64:64-i128:128-f80:128-n8:16:32:64-S128"
target triple = "x86_64-pc-linux-gnu"

%"class.std::vector.25" = type { %"struct.std::_Vector_base.26" }
%"struct.std::_Vector_base.26" = type { %"struct.std::_Vector_base<cv::Mat, std::allocator<cv::Mat>>::_Vector_impl" }
%"struct.std::_Vector_base<cv::Mat, std::allocator<cv::Mat>>::_Vector_impl" = type { %"struct.std::_Vector_base<cv::Mat, std::allocator<cv::Mat>>::_Vector_impl_data" }
%"struct.std::_Vector_base<cv::Mat, std::allocator<cv::Mat>>::_Vector_impl_data" = type { ptr, ptr, ptr }
%"class.cv::face::FacemarkLBFImpl::Regressor" = type { i32, i32, %"class.cv::Mat", %"class.std::vector.35", %"class.std::vector.25" }
%"class.cv::Mat" = type { i32, i32, i32, i32, ptr, ptr, ptr, ptr, ptr, ptr, %"struct.cv::MatSize", %"struct.cv::MatStep" }
%"struct.cv::MatSize" = type { ptr }
%"struct.cv::MatStep" = type { ptr, [2 x i64] }
%"class.std::vector.35" = type { %"struct.std::_Vector_base.36" }
%"struct.std::_Vector_base.36" = type { %"struct.std::_Vector_base<cv::face::FacemarkLBFImpl::RandomForest, std::allocator<cv::face::FacemarkLBFImpl::RandomForest>>::_Vector_impl" }
%"struct.std::_Vector_base<cv::face::FacemarkLBFImpl::RandomForest, std::allocator<cv::face::FacemarkLBFImpl::RandomForest>>::_Vector_impl" = type { %"struct.std::_Vector_base<cv::face::FacemarkLBFImpl::RandomForest, std::allocator<cv::face::FacemarkLBFImpl::RandomForest>>::_Vector_impl_data" }
%"struct.std::_Vector_base<cv::face::FacemarkLBFImpl::RandomForest, std::allocator<cv::face::FacemarkLBFImpl::RandomForest>>::_Vector_impl_data" = type { ptr, ptr, ptr }
%"class.cv::Mat_" = type { %"class.cv::Mat" }

; Function Attrs: inlinehint mustprogress nounwind uwtable
define linkonce_odr hidden noundef nonnull align 8 dereferenceable(8) ptr @_ZN2cv3Mat2atIdEERT_ii(ptr noundef nonnull align 8 dereferenceable(96) %0, i32 noundef %1, i32 noundef %2) #6 comdat align 2 {
  %4 = alloca ptr, align 8
  %5 = alloca i32, align 4
  %6 = alloca i32, align 4
  store ptr %0, ptr %4, align 8, !tbaa !159
  store i32 %1, ptr %5, align 4, !tbaa !37
  store i32 %2, ptr %6, align 4, !tbaa !37
  %7 = load ptr, ptr %4, align 8
  %8 = getelementptr inbounds nuw %"class.cv::Mat", ptr %7, i32 0, i32 4
  %9 = load ptr, ptr %8, align 8, !tbaa !167
  %10 = getelementptr inbounds nuw %"class.cv::Mat", ptr %7, i32 0, i32 11
  %11 = getelementptr inbounds nuw %"struct.cv::MatStep", ptr %10, i32 0, i32 0
  %12 = load ptr, ptr %11, align 8, !tbaa !264
  %13 = getelementptr inbounds i64, ptr %12, i64 0
  %14 = load i64, ptr %13, align 8, !tbaa !65
  %15 = load i32, ptr %5, align 4, !tbaa !37
  %16 = sext i32 %15 to i64
  %17 = mul i64 %14, %16
  %18 = getelementptr inbounds nuw i8, ptr %9, i64 %17
  %19 = load i32, ptr %6, align 4, !tbaa !37
  %20 = sext i32 %19 to i64
  %21 = getelementptr inbounds double, ptr %18, i64 %20
  ret ptr %21
}

; Function Attrs: inlinehint mustprogress nounwind uwtable
define linkonce_odr hidden noundef ptr @_ZNK2cv3Mat3ptrIdEEPKT_i(ptr noundef nonnull align 8 dereferenceable(96) %0, i32 noundef %1) #6 comdat align 2 {
  %3 = alloca ptr, align 8
  %4 = alloca i32, align 4
  store ptr %0, ptr %3, align 8, !tbaa !159
  store i32 %1, ptr %4, align 4, !tbaa !37
  %5 = load ptr, ptr %3, align 8
  %6 = getelementptr inbounds nuw %"class.cv::Mat", ptr %5, i32 0, i32 4
  %7 = load ptr, ptr %6, align 8, !tbaa !167
  %8 = getelementptr inbounds nuw %"class.cv::Mat", ptr %5, i32 0, i32 11
  %9 = getelementptr inbounds nuw %"struct.cv::MatStep", ptr %8, i32 0, i32 0
  %10 = load ptr, ptr %9, align 8, !tbaa !264
  %11 = getelementptr inbounds i64, ptr %10, i64 0
  %12 = load i64, ptr %11, align 8, !tbaa !65
  %13 = load i32, ptr %4, align 4, !tbaa !37
  %14 = sext i32 %13 to i64
  %15 = mul i64 %12, %14
  %16 = getelementptr inbounds nuw i8, ptr %7, i64 %15
  ret ptr %16
}

; Function Attrs: inlinehint mustprogress nounwind uwtable
define linkonce_odr hidden noundef ptr @_ZNK2cv3Mat3ptrIiEEPKT_i(ptr noundef nonnull align 8 dereferenceable(96) %0, i32 noundef %1) #6 comdat align 2 {
  %3 = alloca ptr, align 8
  %4 = alloca i32, align 4
  store ptr %0, ptr %3, align 8, !tbaa !159
  store i32 %1, ptr %4, align 4, !tbaa !37
  %5 = load ptr, ptr %3, align 8
  %6 = getelementptr inbounds nuw %"class.cv::Mat", ptr %5, i32 0, i32 4
  %7 = load ptr, ptr %6, align 8, !tbaa !167
  %8 = getelementptr inbounds nuw %"class.cv::Mat", ptr %5, i32 0, i32 11
  %9 = getelementptr inbounds nuw %"struct.cv::MatStep", ptr %8, i32 0, i32 0
  %10 = load ptr, ptr %9, align 8, !tbaa !264
  %11 = getelementptr inbounds i64, ptr %10, i64 0
  %12 = load i64, ptr %11, align 8, !tbaa !65
  %13 = load i32, ptr %4, align 4, !tbaa !37
  %14 = sext i32 %13 to i64
  %15 = mul i64 %12, %14
  %16 = getelementptr inbounds nuw i8, ptr %7, i64 %15
  ret ptr %16
}

; Function Attrs: inlinehint mustprogress uwtable
define linkonce_odr hidden void @_ZN2cv4Mat_IdEC2ERKNS_3MatE(ptr noundef nonnull align 8 dereferenceable(96) %0, ptr noundef nonnull align 8 dereferenceable(96) %1) unnamed_addr #9 comdat align 2 personality ptr @__gxx_personality_v0 {
  %3 = alloca ptr, align 8
  %4 = alloca ptr, align 8
  %5 = alloca ptr, align 8
  %6 = alloca i32, align 4
  store ptr %0, ptr %3, align 8, !tbaa !260
  store ptr %1, ptr %4, align 8, !tbaa !159
  %7 = load ptr, ptr %3, align 8
  call void @_ZN2cv3MatC2Ev(ptr noundef nonnull align 8 dereferenceable(96) %7) #3
  %8 = getelementptr inbounds nuw %"class.cv::Mat", ptr %7, i32 0, i32 0
  %9 = load i32, ptr %8, align 8, !tbaa !163
  %10 = and i32 %9, -4096
  %11 = add nsw i32 %10, 6
  %12 = getelementptr inbounds nuw %"class.cv::Mat", ptr %7, i32 0, i32 0
  store i32 %11, ptr %12, align 8, !tbaa !163
  %13 = load ptr, ptr %4, align 8, !tbaa !159
  %14 = invoke noundef nonnull align 8 dereferenceable(96) ptr @_ZN2cv4Mat_IdEaSERKNS_3MatE(ptr noundef nonnull align 8 dereferenceable(96) %7, ptr noundef nonnull align 8 dereferenceable(96) %13)
          to label %15 unwind label %16

15:                                               ; preds = %2
  ret void

16:                                               ; preds = %2
  %17 = landingpad { ptr, i32 }
          cleanup
  %18 = extractvalue { ptr, i32 } %17, 0
  store ptr %18, ptr %5, align 8
  %19 = extractvalue { ptr, i32 } %17, 1
  store i32 %19, ptr %6, align 4
  call void @_ZN2cv3MatD2Ev(ptr noundef nonnull align 8 dereferenceable(96) %7) #3
  br label %20

20:                                               ; preds = %16
  %21 = load ptr, ptr %5, align 8
  %22 = load i32, ptr %6, align 4
  %23 = insertvalue { ptr, i32 } poison, ptr %21, 0
  %24 = insertvalue { ptr, i32 } %23, i32 %22, 1
  resume { ptr, i32 } %24
}

; Function Attrs: mustprogress nounwind uwtable
define linkonce_odr hidden noundef nonnull align 8 dereferenceable(96) ptr @_ZNSt6vectorIN2cv3MatESaIS1_EEixEm(ptr noundef nonnull align 8 dereferenceable(24) %0, i64 noundef %1) #5 comdat align 2 {
  %3 = alloca ptr, align 8
  %4 = alloca i64, align 8
  store ptr %0, ptr %3, align 8, !tbaa !139
  store i64 %1, ptr %4, align 8, !tbaa !65
  %5 = load ptr, ptr %3, align 8
  %6 = getelementptr inbounds nuw %"struct.std::_Vector_base.26", ptr %5, i32 0, i32 0
  %7 = getelementptr inbounds nuw %"struct.std::_Vector_base<cv::Mat, std::allocator<cv::Mat>>::_Vector_impl_data", ptr %6, i32 0, i32 0
  %8 = load ptr, ptr %7, align 8, !tbaa !146
  %9 = load i64, ptr %4, align 8, !tbaa !65
  %10 = getelementptr inbounds nuw %"class.cv::Mat", ptr %8, i64 %9
  ret ptr %10
}

; Function Attrs: mustprogress uwtable
define hidden void @_ZN2cv4face15FacemarkLBFImpl9Regressor23globalRegressionPredictERKNS_3MatEi(ptr dead_on_unwind noalias writable sret(%"class.cv::Mat") align 8 %0, ptr noundef nonnull align 8 dereferenceable(152) %1, ptr noundef nonnull align 8 dereferenceable(96) %2, i32 noundef %3) #4 align 2 personality ptr @__gxx_personality_v0 {
  %5 = alloca ptr, align 8
  %6 = alloca ptr, align 8
  %7 = alloca ptr, align 8
  %8 = alloca i32, align 4
  %9 = alloca ptr, align 8
  %10 = alloca %"class.cv::Mat_", align 8
  %11 = alloca i1, align 1
  %12 = alloca ptr, align 8
  %13 = alloca i32, align 4
  %14 = alloca ptr, align 8
  %15 = alloca ptr, align 8
  %16 = alloca i32, align 4
  %17 = alloca i32, align 4
  %18 = alloca double, align 8
  %19 = alloca i32, align 4
  %20 = alloca i32, align 4
  store ptr %0, ptr %5, align 8
  store ptr %1, ptr %6, align 8, !tbaa !143
  store ptr %2, ptr %7, align 8, !tbaa !159
  store i32 %3, ptr %8, align 4, !tbaa !37
  %21 = load ptr, ptr %6, align 8
  call void @llvm.lifetime.start.p0(i64 8, ptr %9) #3
  call void @llvm.lifetime.start.p0(i64 96, ptr %10) #3
  %22 = getelementptr inbounds nuw %"class.cv::face::FacemarkLBFImpl::Regressor", ptr %21, i32 0, i32 4
  %23 = load i32, ptr %8, align 4, !tbaa !37
  %24 = sext i32 %23 to i64
  %25 = call noundef nonnull align 8 dereferenceable(96) ptr @_ZNSt6vectorIN2cv3MatESaIS1_EEixEm(ptr noundef nonnull align 8 dereferenceable(24) %22, i64 noundef %24) #3
  call void @_ZN2cv4Mat_IdEC2ERKNS_3MatE(ptr noundef nonnull align 8 dereferenceable(96) %10, ptr noundef nonnull align 8 dereferenceable(96) %25)
  store ptr %10, ptr %9, align 8, !tbaa !260
  store i1 false, ptr %11, align 1
  %26 = load ptr, ptr %9, align 8, !tbaa !260
  %27 = getelementptr inbounds nuw %"class.cv::Mat", ptr %26, i32 0, i32 2
  %28 = load i32, ptr %27, align 8, !tbaa !165
  %29 = sdiv i32 %28, 2
  invoke void @_ZN2cv3MatC1Eiii(ptr noundef nonnull align 8 dereferenceable(96) %0, i32 noundef %29, i32 noundef 2, i32 noundef 6)
          to label %30 unwind label %40

30:                                               ; preds = %4
  call void @llvm.lifetime.start.p0(i64 8, ptr %14) #3
  store ptr null, ptr %14, align 8, !tbaa !58
  call void @llvm.lifetime.start.p0(i64 8, ptr %15) #3
  %31 = load ptr, ptr %7, align 8, !tbaa !159
  %32 = invoke noundef ptr @_ZNK2cv3Mat3ptrIiEEPKT_i(ptr noundef nonnull align 8 dereferenceable(96) %31, i32 noundef 0)
          to label %33 unwind label %44

33:                                               ; preds = %30
  store ptr %32, ptr %15, align 8, !tbaa !55
  call void @llvm.lifetime.start.p0(i64 4, ptr %16) #3
  store i32 0, ptr %16, align 4, !tbaa !37
  br label %34

34:                                               ; preds = %122, %33
  %35 = load i32, ptr %16, align 4, !tbaa !37
  %36 = getelementptr inbounds nuw %"class.cv::Mat", ptr %0, i32 0, i32 2
  %37 = load i32, ptr %36, align 8, !tbaa !165
  %38 = icmp slt i32 %35, %37
  br i1 %38, label %48, label %39

39:                                               ; preds = %34
  store i32 2, ptr %17, align 4
  call void @llvm.lifetime.end.p0(i64 4, ptr %16) #3
  br label %126

40:                                               ; preds = %4
  %41 = landingpad { ptr, i32 }
          cleanup
  %42 = extractvalue { ptr, i32 } %41, 0
  store ptr %42, ptr %12, align 8
  %43 = extractvalue { ptr, i32 } %41, 1
  store i32 %43, ptr %13, align 4
  br label %131

44:                                               ; preds = %30
  %45 = landingpad { ptr, i32 }
          cleanup
  %46 = extractvalue { ptr, i32 } %45, 0
  store ptr %46, ptr %12, align 8
  %47 = extractvalue { ptr, i32 } %45, 1
  store i32 %47, ptr %13, align 4
  br label %128

48:                                               ; preds = %34
  %49 = load ptr, ptr %9, align 8, !tbaa !260
  %50 = load i32, ptr %16, align 4, !tbaa !37
  %51 = mul nsw i32 2, %50
  %52 = invoke noundef ptr @_ZNK2cv3Mat3ptrIdEEPKT_i(ptr noundef nonnull align 8 dereferenceable(96) %49, i32 noundef %51)
          to label %53 unwind label %61

53:                                               ; preds = %48
  store ptr %52, ptr %14, align 8, !tbaa !58
  call void @llvm.lifetime.start.p0(i64 8, ptr %18) #3
  store double 0.000000e+00, ptr %18, align 8, !tbaa !191
  call void @llvm.lifetime.start.p0(i64 4, ptr %19) #3
  store i32 0, ptr %19, align 4, !tbaa !37
  br label %54

54:                                               ; preds = %77, %53
  %55 = load i32, ptr %19, align 4, !tbaa !37
  %56 = load ptr, ptr %7, align 8, !tbaa !159
  %57 = getelementptr inbounds nuw %"class.cv::Mat", ptr %56, i32 0, i32 3
  %58 = load i32, ptr %57, align 4, !tbaa !166
  %59 = icmp slt i32 %55, %58
  br i1 %59, label %65, label %60

60:                                               ; preds = %54
  store i32 5, ptr %17, align 4
  call void @llvm.lifetime.end.p0(i64 4, ptr %19) #3
  br label %80

61:                                               ; preds = %48
  %62 = landingpad { ptr, i32 }
          cleanup
  %63 = extractvalue { ptr, i32 } %62, 0
  store ptr %63, ptr %12, align 8
  %64 = extractvalue { ptr, i32 } %62, 1
  store i32 %64, ptr %13, align 4
  br label %125

65:                                               ; preds = %54
  %66 = load ptr, ptr %14, align 8, !tbaa !58
  %67 = load ptr, ptr %15, align 8, !tbaa !55
  %68 = load i32, ptr %19, align 4, !tbaa !37
  %69 = sext i32 %68 to i64
  %70 = getelementptr inbounds i32, ptr %67, i64 %69
  %71 = load i32, ptr %70, align 4, !tbaa !37
  %72 = sext i32 %71 to i64
  %73 = getelementptr inbounds double, ptr %66, i64 %72
  %74 = load double, ptr %73, align 8, !tbaa !191
  %75 = load double, ptr %18, align 8, !tbaa !191
  %76 = fadd double %75, %74
  store double %76, ptr %18, align 8, !tbaa !191
  br label %77

77:                                               ; preds = %65
  %78 = load i32, ptr %19, align 4, !tbaa !37
  %79 = add nsw i32 %78, 1
  store i32 %79, ptr %19, align 4, !tbaa !37
  br label %54, !llvm.loop !348

80:                                               ; preds = %60
  %81 = load double, ptr %18, align 8, !tbaa !191
  %82 = load i32, ptr %16, align 4, !tbaa !37
  %83 = invoke noundef nonnull align 8 dereferenceable(8) ptr @_ZN2cv3Mat2atIdEERT_ii(ptr noundef nonnull align 8 dereferenceable(96) %0, i32 noundef %82, i32 noundef 0)
          to label %84 unwind label %98

84:                                               ; preds = %80
  store double %81, ptr %83, align 8, !tbaa !191
  %85 = load ptr, ptr %9, align 8, !tbaa !260
  %86 = load i32, ptr %16, align 4, !tbaa !37
  %87 = mul nsw i32 2, %86
  %88 = add nsw i32 %87, 1
  %89 = invoke noundef ptr @_ZNK2cv3Mat3ptrIdEEPKT_i(ptr noundef nonnull align 8 dereferenceable(96) %85, i32 noundef %88)
          to label %90 unwind label %98

90:                                               ; preds = %84
  store ptr %89, ptr %14, align 8, !tbaa !58
  store double 0.000000e+00, ptr %18, align 8, !tbaa !191
  call void @llvm.lifetime.start.p0(i64 4, ptr %20) #3
  store i32 0, ptr %20, align 4, !tbaa !37
  br label %91

91:                                               ; preds = %114, %90
  %92 = load i32, ptr %20, align 4, !tbaa !37
  %93 = load ptr, ptr %7, align 8, !tbaa !159
  %94 = getelementptr inbounds nuw %"class.cv::Mat", ptr %93, i32 0, i32 3
  %95 = load i32, ptr %94, align 4, !tbaa !166
  %96 = icmp slt i32 %92, %95
  br i1 %96, label %102, label %97

97:                                               ; preds = %91
  store i32 8, ptr %17, align 4
  call void @llvm.lifetime.end.p0(i64 4, ptr %20) #3
  br label %117

98:                                               ; preds = %117, %84, %80
  %99 = landingpad { ptr, i32 }
          cleanup
  %100 = extractvalue { ptr, i32 } %99, 0
  store ptr %100, ptr %12, align 8
  %101 = extractvalue { ptr, i32 } %99, 1
  store i32 %101, ptr %13, align 4
  call void @llvm.lifetime.end.p0(i64 8, ptr %18) #3
  br label %125

102:                                              ; preds = %91
  %103 = load ptr, ptr %14, align 8, !tbaa !58
  %104 = load ptr, ptr %15, align 8, !tbaa !55
  %105 = load i32, ptr %20, align 4, !tbaa !37
  %106 = sext i32 %105 to i64
  %107 = getelementptr inbounds i32, ptr %104, i64 %106
  %108 = load i32, ptr %107, align 4, !tbaa !37
  %109 = sext i32 %108 to i64
  %110 = getelementptr inbounds double, ptr %103, i64 %109
  %111 = load double, ptr %110, align 8, !tbaa !191
  %112 = load double, ptr %18, align 8, !tbaa !191
  %113 = fadd double %112, %111
  store double %113, ptr %18, align 8, !tbaa !191
  br label %114

114:                                              ; preds = %102
  %115 = load i32, ptr %20, align 4, !tbaa !37
  %116 = add nsw i32 %115, 1
  store i32 %116, ptr %20, align 4, !tbaa !37
  br label %91, !llvm.loop !349

117:                                              ; preds = %97
  %118 = load double, ptr %18, align 8, !tbaa !191
  %119 = load i32, ptr %16, align 4, !tbaa !37
  %120 = invoke noundef nonnull align 8 dereferenceable(8) ptr @_ZN2cv3Mat2atIdEERT_ii(ptr noundef nonnull align 8 dereferenceable(96) %0, i32 noundef %119, i32 noundef 1)
          to label %121 unwind label %98

121:                                              ; preds = %117
  store double %118, ptr %120, align 8, !tbaa !191
  call void @llvm.lifetime.end.p0(i64 8, ptr %18) #3
  br label %122

122:                                              ; preds = %121
  %123 = load i32, ptr %16, align 4, !tbaa !37
  %124 = add nsw i32 %123, 1
  store i32 %124, ptr %16, align 4, !tbaa !37
  br label %34, !llvm.loop !350

125:                                              ; preds = %98, %61
  call void @llvm.lifetime.end.p0(i64 4, ptr %16) #3
  br label %128

126:                                              ; preds = %39
  store i1 true, ptr %11, align 1
  store i32 1, ptr %17, align 4
  call void @llvm.lifetime.end.p0(i64 8, ptr %15) #3
  call void @llvm.lifetime.end.p0(i64 8, ptr %14) #3
  %127 = load i1, ptr %11, align 1
  br i1 %127, label %130, label %129

128:                                              ; preds = %125, %44
  call void @llvm.lifetime.end.p0(i64 8, ptr %15) #3
  call void @llvm.lifetime.end.p0(i64 8, ptr %14) #3
  call void @_ZN2cv3MatD1Ev(ptr noundef nonnull align 8 dereferenceable(96) %0) #3
  br label %131

129:                                              ; preds = %126
  call void @_ZN2cv3MatD1Ev(ptr noundef nonnull align 8 dereferenceable(96) %0) #3
  br label %130

130:                                              ; preds = %129, %126
  call void @_ZN2cv3MatD2Ev(ptr noundef nonnull align 8 dereferenceable(96) %10) #3
  call void @llvm.lifetime.end.p0(i64 96, ptr %10) #3
  call void @llvm.lifetime.end.p0(i64 8, ptr %9) #3
  ret void

131:                                              ; preds = %128, %40
  call void @_ZN2cv3MatD2Ev(ptr noundef nonnull align 8 dereferenceable(96) %10) #3
  call void @llvm.lifetime.end.p0(i64 96, ptr %10) #3
  call void @llvm.lifetime.end.p0(i64 8, ptr %9) #3
  br label %132

132:                                              ; preds = %131
  %133 = load ptr, ptr %12, align 8
  %134 = load i32, ptr %13, align 4
  %135 = insertvalue { ptr, i32 } poison, ptr %133, 0
  %136 = insertvalue { ptr, i32 } %135, i32 %134, 1
  resume { ptr, i32 } %136
}