; Function Attrs: mustprogress uwtable
define hidden void @_ZN2cv4face15FacemarkLBFImpl9Regressor23globalRegressionPredictERKNS_3MatEi(ptr dead_on_unwind noalias writable sret(%"class.cv::Mat") align 8 %0, ptr noundef nonnull readonly align 8 captures(none) dereferenceable(152) %1, ptr noundef nonnull readonly align 8 captures(none) dereferenceable(96) %2, i32 noundef %3) local_unnamed_addr #3 align 2 personality ptr @__gxx_personality_v0 {
  %5 = alloca %"class.cv::Mat_", align 8
  call void @llvm.lifetime.start.p0(i64 96, ptr nonnull %5) #31
  %6 = getelementptr inbounds nuw i8, ptr %1, i64 128
  %7 = sext i32 %3 to i64
  %8 = load ptr, ptr %6, align 8, !tbaa !117
  %9 = getelementptr inbounds nuw %"class.cv::Mat", ptr %8, i64 %7
  call void @_ZN2cv3MatC2Ev(ptr noundef nonnull align 8 dereferenceable(96) %5) #31
  %10 = load i32, ptr %5, align 8, !tbaa !140
  %11 = and i32 %10, -4096
  %12 = or disjoint i32 %11, 6
  store i32 %12, ptr %5, align 8, !tbaa !140
  %13 = invoke noundef nonnull align 8 dereferenceable(96) ptr @_ZN2cv4Mat_IdEaSERKNS_3MatE(ptr noundef nonnull align 8 dereferenceable(96) %5, ptr noundef nonnull align 8 dereferenceable(96) %9)
          to label %_ZN2cv4Mat_IdEC2ERKNS_3MatE.exit unwind label %14

common.resume:                                    ; preds = %61, %14
  %common.resume.op = phi { ptr, i32 } [ %15, %14 ], [ %62, %61 ]
  resume { ptr, i32 } %common.resume.op

14:                                               ; preds = %4
  %15 = landingpad { ptr, i32 }
          cleanup
  call void @_ZN2cv3MatD2Ev(ptr noundef nonnull align 8 dereferenceable(96) %5) #31
  br label %common.resume

_ZN2cv4Mat_IdEC2ERKNS_3MatE.exit:                 ; preds = %4
  %16 = getelementptr inbounds nuw i8, ptr %5, i64 8
  %17 = load i32, ptr %16, align 8, !tbaa !146
  %18 = sdiv i32 %17, 2
  invoke void @_ZN2cv3MatC1Eiii(ptr noundef nonnull align 8 dereferenceable(96) %0, i32 noundef %18, i32 noundef 2, i32 noundef 6)
          to label %19 unwind label %61

19:                                               ; preds = %_ZN2cv4Mat_IdEC2ERKNS_3MatE.exit
  %20 = getelementptr inbounds nuw i8, ptr %2, i64 16
  %21 = load ptr, ptr %20, align 8, !tbaa !151
  %22 = getelementptr inbounds nuw i8, ptr %0, i64 8
  %23 = load i32, ptr %22, align 8, !tbaa !146
  %24 = icmp sgt i32 %23, 0
  br i1 %24, label %.lr.ph44, label %._crit_edge45

.lr.ph44:                                         ; preds = %19
  %25 = getelementptr inbounds nuw i8, ptr %5, i64 16
  %26 = load ptr, ptr %25, align 8, !tbaa !151
  %27 = getelementptr inbounds nuw i8, ptr %5, i64 72
  %28 = load ptr, ptr %27, align 8, !tbaa !216
  %29 = load i64, ptr %28, align 8, !tbaa !150
  %30 = getelementptr inbounds nuw i8, ptr %2, i64 12
  %31 = load i32, ptr %30, align 4, !tbaa !147
  %32 = icmp sgt i32 %31, 0
  %33 = getelementptr inbounds nuw i8, ptr %0, i64 16
  %34 = load ptr, ptr %33, align 8, !tbaa !151
  %35 = getelementptr inbounds nuw i8, ptr %0, i64 72
  %36 = load ptr, ptr %35, align 8, !tbaa !216
  %37 = load i64, ptr %36, align 8, !tbaa !150
  %wide.trip.count69 = zext nneg i32 %23 to i64
  br i1 %32, label %.lr.ph.us.us.preheader, label %.lr.ph44.split.split

.lr.ph.us.us.preheader:                           ; preds = %.lr.ph44
  %wide.trip.count59 = zext nneg i32 %31 to i64
  br label %.lr.ph.us.us

.lr.ph.us.us:                                     ; preds = %.lr.ph.us.us.preheader, %._crit_edge40.us.us
  %indvars.iv66 = phi i64 [ 0, %.lr.ph.us.us.preheader ], [ %indvars.iv.next67, %._crit_edge40.us.us ]
  %38 = shl nuw nsw i64 %indvars.iv66, 1
  %39 = mul i64 %29, %38
  %40 = getelementptr inbounds nuw i8, ptr %26, i64 %39
  br label %48

41:                                               ; preds = %._crit_edge.us.us, %41
  %indvars.iv61 = phi i64 [ 0, %._crit_edge.us.us ], [ %indvars.iv.next62, %41 ]
  %.136.us.us = phi double [ 0.000000e+00, %._crit_edge.us.us ], [ %47, %41 ]
  %42 = getelementptr inbounds nuw i32, ptr %21, i64 %indvars.iv61
  %43 = load i32, ptr %42, align 4, !tbaa !40
  %44 = sext i32 %43 to i64
  %45 = getelementptr inbounds double, ptr %59, i64 %44
  %46 = load double, ptr %45, align 8, !tbaa !46
  %47 = fadd double %.136.us.us, %46
  %indvars.iv.next62 = add nuw nsw i64 %indvars.iv61, 1
  %exitcond65.not = icmp eq i64 %indvars.iv.next62, %wide.trip.count59
  br i1 %exitcond65.not, label %._crit_edge40.us.us, label %41, !llvm.loop !270

48:                                               ; preds = %48, %.lr.ph.us.us
  %indvars.iv56 = phi i64 [ %indvars.iv.next57, %48 ], [ 0, %.lr.ph.us.us ]
  %.03133.us.us = phi double [ %54, %48 ], [ 0.000000e+00, %.lr.ph.us.us ]
  %49 = getelementptr inbounds nuw i32, ptr %21, i64 %indvars.iv56
  %50 = load i32, ptr %49, align 4, !tbaa !40
  %51 = sext i32 %50 to i64
  %52 = getelementptr inbounds double, ptr %40, i64 %51
  %53 = load double, ptr %52, align 8, !tbaa !46
  %54 = fadd double %.03133.us.us, %53
  %indvars.iv.next57 = add nuw nsw i64 %indvars.iv56, 1
  %exitcond60.not = icmp eq i64 %indvars.iv.next57, %wide.trip.count59
  br i1 %exitcond60.not, label %._crit_edge.us.us, label %48, !llvm.loop !271

._crit_edge.us.us:                                ; preds = %48
  %55 = mul i64 %37, %indvars.iv66
  %56 = getelementptr inbounds nuw i8, ptr %34, i64 %55
  store double %54, ptr %56, align 8, !tbaa !46
  %57 = or disjoint i64 %38, 1
  %58 = mul i64 %29, %57
  %59 = getelementptr inbounds nuw i8, ptr %26, i64 %58
  br label %41

._crit_edge40.us.us:                              ; preds = %41
  %60 = getelementptr inbounds nuw i8, ptr %56, i64 8
  store double %47, ptr %60, align 8, !tbaa !46
  %indvars.iv.next67 = add nuw nsw i64 %indvars.iv66, 1
  %exitcond70.not = icmp eq i64 %indvars.iv.next67, %wide.trip.count69
  br i1 %exitcond70.not, label %._crit_edge45, label %.lr.ph.us.us, !llvm.loop !272

61:                                               ; preds = %_ZN2cv4Mat_IdEC2ERKNS_3MatE.exit
  %62 = landingpad { ptr, i32 }
          cleanup
  call void @_ZN2cv3MatD2Ev(ptr noundef nonnull align 8 dereferenceable(96) %5) #31
  call void @llvm.lifetime.end.p0(i64 96, ptr nonnull %5) #31
  br label %common.resume

.lr.ph44.split.split:                             ; preds = %.lr.ph44, %.lr.ph44.split.split
  %indvars.iv = phi i64 [ %indvars.iv.next, %.lr.ph44.split.split ], [ 0, %.lr.ph44 ]
  %63 = mul i64 %37, %indvars.iv
  %64 = getelementptr inbounds nuw i8, ptr %34, i64 %63
  %indvars.iv.next = add nuw nsw i64 %indvars.iv, 1
  %exitcond.not = icmp eq i64 %indvars.iv.next, %wide.trip.count69
  call void @llvm.memset.p0.i64(ptr noundef nonnull align 8 dereferenceable(16) %64, i8 0, i64 16, i1 false)
  br i1 %exitcond.not, label %._crit_edge45, label %.lr.ph44.split.split, !llvm.loop !272

._crit_edge45:                                    ; preds = %.lr.ph44.split.split, %._crit_edge40.us.us, %19
  call void @_ZN2cv3MatD2Ev(ptr noundef nonnull align 8 dereferenceable(96) %5) #31
  call void @llvm.lifetime.end.p0(i64 96, ptr nonnull %5) #31
  ret void
}